; Function Attrs: nounwind uwtable
define ptr @l_Lean_Server_RequestM_findCmdParsedSnaps_go(ptr noundef %0, ptr noundef %1, ptr noundef %2, ptr noundef %3) local_unnamed_addr #1 {
  %5 = tail call zeroext i8 @l_Lean_Server_RequestM_findCmdParsedSnaps_isAfterRequestedRange(ptr noundef %1, ptr noundef %2)
  %6 = icmp eq i8 %5, 0
  br i1 %6, label %7, label %21

7:                                                ; preds = %4
  %8 = tail call zeroext i8 @l_Lean_Server_RequestM_findCmdParsedSnaps_overlapsRequestedRange(ptr noundef %0, ptr noundef %1, ptr noundef %2)
  %9 = icmp eq i8 %8, 0
  br i1 %9, label %l_Lean_Server_RequestM_findCmdParsedSnaps_go___lambda__3.exit, label %10

10:                                               ; preds = %7
  %11 = ptrtoint ptr %2 to i64
  %12 = and i64 %11, 1
  %.not.i20 = icmp eq i64 %12, 0
  br i1 %.not.i20, label %13, label %lean_inc.exit.i

13:                                               ; preds = %10
  %.val.i.i = load i32, ptr %2, align 4, !tbaa !4
  %14 = icmp sgt i32 %.val.i.i, 0
  br i1 %14, label %15, label %17, !prof !11

15:                                               ; preds = %13
  %16 = add nuw i32 %.val.i.i, 1
  store i32 %16, ptr %2, align 4, !tbaa !4
  br label %lean_inc.exit.i

17:                                               ; preds = %13
  %.not.i.i = icmp eq i32 %.val.i.i, 0
  br i1 %.not.i.i, label %lean_inc.exit.i, label %18

18:                                               ; preds = %17
  tail call void @lean_inc_ref_cold(ptr noundef nonnull %2) #6
  br label %lean_inc.exit.i

lean_inc.exit.i:                                  ; preds = %18, %17, %15, %10
  %19 = tail call ptr @lean_array_push(ptr noundef %3, ptr noundef %2) #6
  br label %l_Lean_Server_RequestM_findCmdParsedSnaps_go___lambda__3.exit

l_Lean_Server_RequestM_findCmdParsedSnaps_go___lambda__3.exit: ; preds = %7, %lean_inc.exit.i
  %.sink.i = phi ptr [ %19, %lean_inc.exit.i ], [ %3, %7 ]
  %20 = tail call ptr @l_Lean_Server_RequestM_findCmdParsedSnaps_go___lambda__2(ptr noundef %2, ptr noundef %0, ptr noundef %1, ptr noundef %.sink.i, ptr nonnull poison)
  br label %50

21:                                               ; preds = %4
  %22 = ptrtoint ptr %2 to i64
  %23 = and i64 %22, 1
  %.not = icmp eq i64 %23, 0
  br i1 %.not, label %24, label %lean_dec.exit15

24:                                               ; preds = %21
  %25 = load i32, ptr %2, align 4, !tbaa !4
  %26 = icmp sgt i32 %25, 1
  br i1 %26, label %27, label %29, !prof !11

27:                                               ; preds = %24
  %28 = add nsw i32 %25, -1
  store i32 %28, ptr %2, align 4, !tbaa !4
  br label %lean_dec.exit15

29:                                               ; preds = %24
  %.not.i = icmp eq i32 %25, 0
  br i1 %.not.i, label %lean_dec.exit15, label %30

30:                                               ; preds = %29
  tail call void @lean_dec_ref_cold(ptr noundef nonnull %2) #6
  br label %lean_dec.exit15

lean_dec.exit15:                                  ; preds = %30, %29, %27, %21
  %31 = ptrtoint ptr %1 to i64
  %32 = and i64 %31, 1
  %.not21 = icmp eq i64 %32, 0
  br i1 %.not21, label %33, label %lean_dec.exit14

33:                                               ; preds = %lean_dec.exit15
  %34 = load i32, ptr %1, align 4, !tbaa !4
  %35 = icmp sgt i32 %34, 1
  br i1 %35, label %36, label %38, !prof !11

36:                                               ; preds = %33
  %37 = add nsw i32 %34, -1
  store i32 %37, ptr %1, align 4, !tbaa !4
  br label %lean_dec.exit14

38:                                               ; preds = %33
  %.not.i16 = icmp eq i32 %34, 0
  br i1 %.not.i16, label %lean_dec.exit14, label %39

39:                                               ; preds = %38
  tail call void @lean_dec_ref_cold(ptr noundef nonnull %1) #6
  br label %lean_dec.exit14

lean_dec.exit14:                                  ; preds = %39, %38, %36, %lean_dec.exit15
  %40 = ptrtoint ptr %0 to i64
  %41 = and i64 %40, 1
  %.not22 = icmp eq i64 %41, 0
  br i1 %.not22, label %42, label %lean_dec.exit

42:                                               ; preds = %lean_dec.exit14
  %43 = load i32, ptr %0, align 4, !tbaa !4
  %44 = icmp sgt i32 %43, 1
  br i1 %44, label %45, label %47, !prof !11

45:                                               ; preds = %42
  %46 = add nsw i32 %43, -1
  store i32 %46, ptr %0, align 4, !tbaa !4
  br label %lean_dec.exit

47:                                               ; preds = %42
  %.not.i18 = icmp eq i32 %43, 0
  br i1 %.not.i18, label %lean_dec.exit, label %48

48:                                               ; preds = %47
  tail call void @lean_dec_ref_cold(ptr noundef nonnull %0) #6
  br label %lean_dec.exit

lean_dec.exit:                                    ; preds = %48, %47, %45, %lean_dec.exit14
  %49 = tail call ptr @lean_task_pure(ptr noundef %3) #6
  br label %50

50:                                               ; preds = %lean_dec.exit, %l_Lean_Server_RequestM_findCmdParsedSnaps_go___lambda__3.exit
  %.0 = phi ptr [ %20, %l_Lean_Server_RequestM_findCmdParsedSnaps_go___lambda__3.exit ], [ %49, %lean_dec.exit ]
  ret ptr %.0
}